; ModuleID = '50/128.c'
source_filename = "50/128.c"
target datalayout = "e-m:e-p270:32:32-p271:32:32-p272:64:64-i64:64-f80:128-n8:16:32:64-S128"
target triple = "x86_64-pc-linux-gnu"

@__const.main.b = private unnamed_addr constant [12 x i32] [i32 13, i32 44, i32 72, i32 103, i32 133, i32 164, i32 194, i32 225, i32 256, i32 286, i32 317, i32 347], align 16
@.str = private unnamed_addr constant [3 x i8] c"%d\00", align 1
@.str.1 = private unnamed_addr constant [4 x i8] c"%d\0A\00", align 1

; Function Attrs: noinline nounwind uwtable
define dso_local i32 @main(i32 %0, i8** %1) #0 {
  %3 = alloca i32, align 4
  %4 = alloca i32, align 4
  %5 = alloca i8**, align 8
  %6 = alloca i32, align 4
  %7 = alloca i32, align 4
  %8 = alloca i32, align 4
  %9 = alloca [12 x i32], align 16
  store i32 0, i32* %3, align 4
  store i32 %0, i32* %4, align 4
  store i8** %1, i8*** %5, align 8
  %10 = bitcast [12 x i32]* %9 to i8*
  call void @llvm.memcpy.p0i8.p0i8.i64(i8* align 16 %10, i8* align 16 bitcast ([12 x i32]* @__const.main.b to i8*), i64 48, i1 false)
  %11 = call i32 (i8*, ...) @__isoc99_scanf(i8* getelementptr inbounds ([3 x i8], [3 x i8]* @.str, i64 0, i64 0), i32* %8)
  %12 = load i32, i32* %8, align 4
  %13 = icmp eq i32 %12, 5
  br i1 %13, label %14, label %15

14:                                               ; preds = %2
  store i32 1, i32* %6, align 4
  br label %15

15:                                               ; preds = %14, %2
  %16 = load i32, i32* %8, align 4
  %17 = icmp eq i32 %16, 6
  br i1 %17, label %18, label %19

18:                                               ; preds = %15
  store i32 0, i32* %6, align 4
  br label %19

19:                                               ; preds = %18, %15
  %20 = load i32, i32* %8, align 4
  %21 = icmp eq i32 %20, 7
  br i1 %21, label %22, label %23

22:                                               ; preds = %19
  store i32 6, i32* %6, align 4
  br label %26

23:                                               ; preds = %19
  %24 = load i32, i32* %8, align 4
  %25 = sub nsw i32 6, %24
  store i32 %25, i32* %6, align 4
  br label %26

26:                                               ; preds = %23, %22
  store i32 0, i32* %7, align 4
  br label %27

27:                                               ; preds = %43, %26
  %28 = load i32, i32* %7, align 4
  %29 = icmp slt i32 %28, 12
  br i1 %29, label %30, label %46

30:                                               ; preds = %27
  %31 = load i32, i32* %7, align 4
  %32 = sext i32 %31 to i64
  %33 = getelementptr inbounds [12 x i32], [12 x i32]* %9, i64 0, i64 %32
  %34 = load i32, i32* %33, align 4
  %35 = srem i32 %34, 7
  %36 = load i32, i32* %6, align 4
  %37 = icmp eq i32 %35, %36
  br i1 %37, label %38, label %42

38:                                               ; preds = %30
  %39 = load i32, i32* %7, align 4
  %40 = add nsw i32 %39, 1
  %41 = call i32 (i8*, ...) @printf(i8* getelementptr inbounds ([4 x i8], [4 x i8]* @.str.1, i64 0, i64 0), i32 %40)
  br label %42

42:                                               ; preds = %38, %30
  br label %43

43:                                               ; preds = %42
  %44 = load i32, i32* %7, align 4
  %45 = add nsw i32 %44, 1
  store i32 %45, i32* %7, align 4
  br label %27

46:                                               ; preds = %27
  ret i32 0
}

; Function Attrs: argmemonly nounwind willreturn
declare void @llvm.memcpy.p0i8.p0i8.i64(i8* noalias nocapture writeonly, i8* noalias nocapture readonly, i64, i1 immarg) #1

declare dso_local i32 @__isoc99_scanf(i8*, ...) #2

declare dso_local i32 @printf(i8*, ...) #2


!llvm.module.flags = !{!0}
!llvm.ident = !{!1}

!0 = !{i32 1, !"wchar_size", i32 4}
!1 = !{!"clang version 10.0.0-4ubuntu1 "}
