; ModuleID = 'source-C-CXX/49/128.c'
source_filename = "source-C-CXX/49/128.c"
target datalayout = "e-m:e-p270:32:32-p271:32:32-p272:64:64-i64:64-f80:128-n8:16:32:64-S128"
target triple = "x86_64-pc-linux-gnu"

@.str = private unnamed_addr constant [3 x i8] c"%d\00", align 1
@.str.1 = private unnamed_addr constant [4 x i8] c"%d\0A\00", align 1

; Function Attrs: nofree nounwind sspstrong uwtable
define dso_local i32 @main(i32 %0, i8** nocapture readnone %1) local_unnamed_addr #0 {
  %3 = alloca i32, align 4
  %4 = bitcast i32* %3 to i8*
  call void @llvm.lifetime.start.p0i8(i64 4, i8* nonnull %4) #3
  %5 = call i32 (i8*, ...) @__isoc99_scanf(i8* getelementptr inbounds ([3 x i8], [3 x i8]* @.str, i64 0, i64 0), i32* nonnull %3)
  %6 = load i32, i32* %3, align 4, !tbaa !5
  %7 = icmp eq i32 %6, 7
  %8 = sub nsw i32 6, %6
  %9 = select i1 %7, i32 6, i32 %8
  %10 = icmp eq i32 %9, 6
  br i1 %10, label %14, label %11

11:                                               ; preds = %2
  switch i32 %9, label %21 [
    i32 2, label %12
    i32 5, label %18
    i32 0, label %27
  ]

12:                                               ; preds = %11
  %13 = call i32 (i8*, ...) @printf(i8* nonnull dereferenceable(1) getelementptr inbounds ([4 x i8], [4 x i8]* @.str.1, i64 0, i64 0), i32 2)
  br label %14

14:                                               ; preds = %2, %12
  %15 = phi i32 [ 3, %12 ], [ 1, %2 ]
  %16 = xor i1 %10, true
  %17 = call i32 (i8*, ...) @printf(i8* nonnull dereferenceable(1) getelementptr inbounds ([4 x i8], [4 x i8]* @.str.1, i64 0, i64 0), i32 %15)
  br label %21

18:                                               ; preds = %11
  %19 = call i32 (i8*, ...) @printf(i8* nonnull dereferenceable(1) getelementptr inbounds ([4 x i8], [4 x i8]* @.str.1, i64 0, i64 0), i32 4)
  %20 = call i32 (i8*, ...) @printf(i8* nonnull dereferenceable(1) getelementptr inbounds ([4 x i8], [4 x i8]* @.str.1, i64 0, i64 0), i32 7)
  br label %24

21:                                               ; preds = %11, %14
  %22 = phi i1 [ %16, %14 ], [ false, %11 ]
  %23 = icmp eq i32 %9, 3
  br i1 %23, label %27, label %24

24:                                               ; preds = %21, %18
  %25 = phi i1 [ false, %18 ], [ %22, %21 ]
  switch i32 %9, label %32 [
    i32 1, label %27
    i32 4, label %26
  ]

26:                                               ; preds = %24
  br label %27

27:                                               ; preds = %11, %21, %24, %26
  %28 = phi i32 [ 9, %26 ], [ 5, %11 ], [ 6, %21 ], [ 8, %24 ]
  %29 = phi i1 [ true, %26 ], [ false, %11 ], [ false, %21 ], [ false, %24 ]
  %30 = phi i1 [ %25, %26 ], [ false, %11 ], [ %22, %21 ], [ %25, %24 ]
  %31 = call i32 (i8*, ...) @printf(i8* nonnull dereferenceable(1) getelementptr inbounds ([4 x i8], [4 x i8]* @.str.1, i64 0, i64 0), i32 %28)
  br label %32

32:                                               ; preds = %27, %24
  %33 = phi i1 [ false, %24 ], [ %29, %27 ]
  %34 = phi i1 [ %25, %24 ], [ %30, %27 ]
  br i1 %10, label %35, label %37

35:                                               ; preds = %32
  %36 = call i32 (i8*, ...) @printf(i8* nonnull dereferenceable(1) getelementptr inbounds ([4 x i8], [4 x i8]* @.str.1, i64 0, i64 0), i32 10)
  br label %37

37:                                               ; preds = %35, %32
  br i1 %34, label %38, label %40

38:                                               ; preds = %37
  %39 = call i32 (i8*, ...) @printf(i8* nonnull dereferenceable(1) getelementptr inbounds ([4 x i8], [4 x i8]* @.str.1, i64 0, i64 0), i32 11)
  br label %40

40:                                               ; preds = %38, %37
  br i1 %33, label %41, label %43

41:                                               ; preds = %40
  %42 = call i32 (i8*, ...) @printf(i8* nonnull dereferenceable(1) getelementptr inbounds ([4 x i8], [4 x i8]* @.str.1, i64 0, i64 0), i32 12)
  br label %43

43:                                               ; preds = %41, %40
  call void @llvm.lifetime.end.p0i8(i64 4, i8* nonnull %4) #3
  ret i32 0
}

; Function Attrs: argmemonly mustprogress nofree nosync nounwind willreturn
declare void @llvm.lifetime.start.p0i8(i64 immarg, i8* nocapture) #1

; Function Attrs: nofree nounwind
declare noundef i32 @__isoc99_scanf(i8* nocapture noundef readonly, ...) local_unnamed_addr #2

; Function Attrs: nofree nounwind
declare noundef i32 @printf(i8* nocapture noundef readonly, ...) local_unnamed_addr #2

; Function Attrs: argmemonly mustprogress nofree nosync nounwind willreturn
declare void @llvm.lifetime.end.p0i8(i64 immarg, i8* nocapture) #1


!llvm.module.flags = !{!0, !1, !2, !3}
!llvm.ident = !{!4}

!0 = !{i32 1, !"wchar_size", i32 4}
!1 = !{i32 7, !"PIC Level", i32 2}
!2 = !{i32 7, !"PIE Level", i32 2}
!3 = !{i32 7, !"uwtable", i32 1}
!4 = !{!"clang version 13.0.0"}
!5 = !{!6, !6, i64 0}
!6 = !{!"int", !7, i64 0}
!7 = !{!"omnipotent char", !8, i64 0}
!8 = !{!"Simple C/C++ TBAA"}
